; ModuleID = '50/1604.c'
source_filename = "50/1604.c"
target datalayout = "e-m:e-p270:32:32-p271:32:32-p272:64:64-i64:64-f80:128-n8:16:32:64-S128"
target triple = "x86_64-pc-linux-gnu"

@.str = private unnamed_addr constant [3 x i8] c"%d\00", align 1
@.str.1 = private unnamed_addr constant [4 x i8] c"%d\0A\00", align 1

; Function Attrs: noinline nounwind uwtable
define dso_local i32 @main() #0 {
  %1 = alloca i32, align 4
  %2 = alloca i32, align 4
  %3 = alloca i32, align 4
  %4 = alloca i32, align 4
  %5 = alloca i32, align 4
  store i32 0, i32* %1, align 4
  %6 = call i32 (i8*, ...) @__isoc99_scanf(i8* getelementptr inbounds ([3 x i8], [3 x i8]* @.str, i64 0, i64 0), i32* %2)
  store i32 1, i32* %3, align 4
  br label %7

7:                                                ; preds = %35, %0
  %8 = load i32, i32* %3, align 4
  %9 = icmp sle i32 %8, 12
  br i1 %9, label %10, label %38

10:                                               ; preds = %7
  store i32 0, i32* %5, align 4
  store i32 1, i32* %4, align 4
  br label %11

11:                                               ; preds = %15, %10
  %12 = load i32, i32* %3, align 4
  %13 = load i32, i32* %4, align 4
  %14 = icmp sgt i32 %12, %13
  br i1 %14, label %15, label %22

15:                                               ; preds = %11
  %16 = load i32, i32* %4, align 4
  %17 = call i32 @num(i32 %16)
  %18 = load i32, i32* %5, align 4
  %19 = add nsw i32 %18, %17
  store i32 %19, i32* %5, align 4
  %20 = load i32, i32* %4, align 4
  %21 = add nsw i32 %20, 1
  store i32 %21, i32* %4, align 4
  br label %11

22:                                               ; preds = %11
  %23 = load i32, i32* %5, align 4
  %24 = add nsw i32 %23, 12
  store i32 %24, i32* %5, align 4
  %25 = load i32, i32* %2, align 4
  %26 = load i32, i32* %5, align 4
  %27 = srem i32 %26, 7
  %28 = add nsw i32 %25, %27
  %29 = srem i32 %28, 7
  %30 = icmp eq i32 %29, 5
  br i1 %30, label %31, label %34

31:                                               ; preds = %22
  %32 = load i32, i32* %3, align 4
  %33 = call i32 (i8*, ...) @printf(i8* getelementptr inbounds ([4 x i8], [4 x i8]* @.str.1, i64 0, i64 0), i32 %32)
  br label %34

34:                                               ; preds = %31, %22
  br label %35

35:                                               ; preds = %34
  %36 = load i32, i32* %3, align 4
  %37 = add nsw i32 %36, 1
  store i32 %37, i32* %3, align 4
  br label %7

38:                                               ; preds = %7
  ret i32 0
}

declare dso_local i32 @__isoc99_scanf(i8*, ...) #1

; Function Attrs: noinline nounwind uwtable
define dso_local i32 @num(i32 %0) #0 {
  %2 = alloca i32, align 4
  %3 = alloca i32, align 4
  store i32 %0, i32* %2, align 4
  %4 = load i32, i32* %2, align 4
  %5 = icmp eq i32 %4, 1
  br i1 %5, label %24, label %6

6:                                                ; preds = %1
  %7 = load i32, i32* %2, align 4
  %8 = icmp eq i32 %7, 3
  br i1 %8, label %24, label %9

9:                                                ; preds = %6
  %10 = load i32, i32* %2, align 4
  %11 = icmp eq i32 %10, 5
  br i1 %11, label %24, label %12

12:                                               ; preds = %9
  %13 = load i32, i32* %2, align 4
  %14 = icmp eq i32 %13, 7
  br i1 %14, label %24, label %15

15:                                               ; preds = %12
  %16 = load i32, i32* %2, align 4
  %17 = icmp eq i32 %16, 8
  br i1 %17, label %24, label %18

18:                                               ; preds = %15
  %19 = load i32, i32* %2, align 4
  %20 = icmp eq i32 %19, 10
  br i1 %20, label %24, label %21

21:                                               ; preds = %18
  %22 = load i32, i32* %2, align 4
  %23 = icmp eq i32 %22, 12
  br i1 %23, label %24, label %25

24:                                               ; preds = %21, %18, %15, %12, %9, %6, %1
  store i32 31, i32* %3, align 4
  br label %25

25:                                               ; preds = %24, %21
  %26 = load i32, i32* %2, align 4
  %27 = icmp eq i32 %26, 4
  br i1 %27, label %37, label %28

28:                                               ; preds = %25
  %29 = load i32, i32* %2, align 4
  %30 = icmp eq i32 %29, 6
  br i1 %30, label %37, label %31

31:                                               ; preds = %28
  %32 = load i32, i32* %2, align 4
  %33 = icmp eq i32 %32, 9
  br i1 %33, label %37, label %34

34:                                               ; preds = %31
  %35 = load i32, i32* %2, align 4
  %36 = icmp eq i32 %35, 11
  br i1 %36, label %37, label %38

37:                                               ; preds = %34, %31, %28, %25
  store i32 30, i32* %3, align 4
  br label %38

38:                                               ; preds = %37, %34
  %39 = load i32, i32* %2, align 4
  %40 = icmp eq i32 %39, 2
  br i1 %40, label %41, label %42

41:                                               ; preds = %38
  store i32 28, i32* %3, align 4
  br label %42

42:                                               ; preds = %41, %38
  %43 = load i32, i32* %3, align 4
  ret i32 %43
}

declare dso_local i32 @printf(i8*, ...) #1


!llvm.module.flags = !{!0}
!llvm.ident = !{!1}

!0 = !{i32 1, !"wchar_size", i32 4}
!1 = !{!"clang version 10.0.0-4ubuntu1 "}
